; Function Attrs: mustprogress nounwind uwtable
define internal noundef nonnull ptr @"_ZN4llvm12function_refIFPNS_18BlockFrequencyInfoERNS_8FunctionEEE11callback_fnIZN12_GLOBAL__N_115CallGraphViewer11runOnModuleERNS_6ModuleEE3$_0EES2_lS4_"(i64 noundef %0, ptr noundef nonnull align 8 dereferenceable(136) %1) #0 align 2 {
  %3 = alloca %"class.std::tuple.223", align 8
  %4 = inttoptr i64 %0 to ptr
  %.val = load ptr, ptr %4, align 8
  call void @llvm.lifetime.start.p0(i64 16, ptr nonnull %3)
  %5 = getelementptr inbounds nuw i8, ptr %.val, i64 8
  %6 = load ptr, ptr %5, align 8
  call void @_ZN4llvm16AnalysisResolver12findImplPassEPNS_4PassEPKvRNS_8FunctionE(ptr dead_on_unwind nonnull writable sret(%"class.std::tuple.223") align 8 %3, ptr noundef nonnull align 8 dereferenceable(32) %6, ptr noundef nonnull %.val, ptr noundef nonnull @_ZN4llvm29BlockFrequencyInfoWrapperPass2IDE, ptr noundef nonnull align 8 dereferenceable(136) %1) #20
  %7 = getelementptr inbounds i8, ptr %3, i64 8
  %8 = load ptr, ptr %7, align 8
  %9 = load ptr, ptr %8, align 8
  %10 = getelementptr inbounds i8, ptr %9, i64 96
  %11 = load ptr, ptr %10, align 8
  %12 = call noundef nonnull align 8 dereferenceable(40) ptr %11(ptr noundef nonnull align 8 dereferenceable(28) %8, ptr noundef nonnull @_ZN4llvm29BlockFrequencyInfoWrapperPass2IDE) #20
  call void @llvm.lifetime.end.p0(i64 16, ptr nonnull %3)
  %13 = getelementptr inbounds nuw i8, ptr %12, i64 32
  ret ptr %13
}